; Function Attrs: mustprogress uwtable
define hidden noundef i32 @_ZN4ncnn7RMSNorm10load_paramERKNS_9ParamDictE(ptr noundef nonnull writeonly align 8 captures(none) dereferenceable(296) initializes((208, 220)) %0, ptr noundef nonnull align 8 dereferenceable(16) %1) unnamed_addr #1 align 2 {
  %3 = tail call noundef i32 @_ZNK4ncnn9ParamDict3getEii(ptr noundef nonnull align 8 dereferenceable(16) %1, i32 noundef 0, i32 noundef 0)
  %4 = getelementptr inbounds nuw i8, ptr %0, i64 208
  store i32 %3, ptr %4, align 8, !tbaa !18
  %5 = tail call fast noundef nofpclass(nan inf) float @_ZNK4ncnn9ParamDict3getEif(ptr noundef nonnull align 8 dereferenceable(16) %1, i32 noundef 1, float noundef nofpclass(nan inf) 0x3F50624DE0000000)
  %6 = getelementptr inbounds nuw i8, ptr %0, i64 212
  store float %5, ptr %6, align 4, !tbaa !35
  %7 = tail call noundef i32 @_ZNK4ncnn9ParamDict3getEii(ptr noundef nonnull align 8 dereferenceable(16) %1, i32 noundef 2, i32 noundef 1)
  %8 = getelementptr inbounds nuw i8, ptr %0, i64 216
  store i32 %7, ptr %8, align 8, !tbaa !36
  ret i32 0
}